; Function Attrs: mustprogress nounwind uwtable
define internal fastcc void @_ZN12_GLOBAL__N_111DeclPrinter18prettyPrintPragmasEPN5clang4DeclE(ptr noundef nonnull align 8 dereferenceable(37) %0, ptr noundef %1) unnamed_addr #0 align 2 {
  %3 = getelementptr inbounds nuw i8, ptr %0, i64 8
  %4 = load i64, ptr %3, align 8
  %5 = and i64 %4, 2147483648
  %.not = icmp eq i64 %5, 0
  br i1 %.not, label %6, label %.loopexit

6:                                                ; preds = %2
  %7 = getelementptr inbounds nuw i8, ptr %1, i64 28
  %8 = load i32, ptr %7, align 4
  %9 = and i32 %8, 256
  %.not13 = icmp eq i32 %9, 0
  br i1 %.not13, label %.loopexit, label %10

10:                                               ; preds = %6
  %11 = tail call noundef nonnull align 8 dereferenceable(48) ptr @_ZNK5clang4Decl8getAttrsEv(ptr noundef nonnull align 8 dereferenceable(33) %1) #14
  %12 = load ptr, ptr %11, align 8
  %13 = tail call noundef i64 @_ZNK4llvm15SmallVectorBaseIjE4sizeEv(ptr noundef nonnull align 8 dereferenceable(16) %11) #14
  %14 = getelementptr inbounds ptr, ptr %12, i64 %13
  %.not1214 = icmp eq i64 %13, 0
  br i1 %.not1214, label %.loopexit, label %.lr.ph

.lr.ph:                                           ; preds = %10
  %15 = getelementptr inbounds nuw i8, ptr %0, i64 32
  br label %16

16:                                               ; preds = %.lr.ph, %_ZN12_GLOBAL__N_111DeclPrinter6IndentEv.exit
  %.015 = phi ptr [ %12, %.lr.ph ], [ %38, %_ZN12_GLOBAL__N_111DeclPrinter6IndentEv.exit ]
  %17 = load ptr, ptr %.015, align 8
  %18 = getelementptr inbounds nuw i8, ptr %17, i64 32
  %19 = load i16, ptr %18, align 8
  switch i16 %19, label %_ZN12_GLOBAL__N_111DeclPrinter6IndentEv.exit [
    i16 392, label %20
    i16 394, label %20
    i16 399, label %20
    i16 273, label %20
    i16 274, label %20
  ]

20:                                               ; preds = %16, %16, %16, %16, %16
  %21 = load ptr, ptr %0, align 8
  tail call void @_ZNK5clang4Attr11printPrettyERN4llvm11raw_ostreamERKNS_14PrintingPolicyE(ptr noundef nonnull align 8 dereferenceable(35) %17, ptr noundef nonnull align 8 dereferenceable(48) %21, ptr noundef nonnull align 8 dereferenceable(16) %3) #14
  %22 = load i32, ptr %15, align 8
  %.not3.i.i = icmp eq i32 %22, 0
  br i1 %.not3.i.i, label %_ZN12_GLOBAL__N_111DeclPrinter6IndentEv.exit, label %.lr.ph.i.i

.lr.ph.i.i:                                       ; preds = %20, %_ZN4llvm11raw_ostreamlsEPKc.exit.i.i
  %.04.i.i = phi i32 [ %37, %_ZN4llvm11raw_ostreamlsEPKc.exit.i.i ], [ 0, %20 ]
  %23 = load ptr, ptr %0, align 8
  %24 = getelementptr inbounds nuw i8, ptr %23, i64 24
  %25 = load ptr, ptr %24, align 8
  %26 = getelementptr inbounds nuw i8, ptr %23, i64 32
  %27 = load ptr, ptr %26, align 8
  %28 = ptrtoint ptr %25 to i64
  %29 = ptrtoint ptr %27 to i64
  %30 = sub i64 %28, %29
  %31 = icmp ult i64 %30, 2
  br i1 %31, label %32, label %34

32:                                               ; preds = %.lr.ph.i.i
  %33 = tail call noundef nonnull align 8 dereferenceable(48) ptr @_ZN4llvm11raw_ostream5writeEPKcm(ptr noundef nonnull align 8 dereferenceable(48) %23, ptr noundef nonnull @.str.7, i64 noundef 2) #14
  br label %_ZN4llvm11raw_ostreamlsEPKc.exit.i.i

34:                                               ; preds = %.lr.ph.i.i
  store i16 8224, ptr %27, align 1
  %35 = load ptr, ptr %26, align 8
  %36 = getelementptr inbounds i8, ptr %35, i64 2
  store ptr %36, ptr %26, align 8
  br label %_ZN4llvm11raw_ostreamlsEPKc.exit.i.i

_ZN4llvm11raw_ostreamlsEPKc.exit.i.i:             ; preds = %34, %32
  %37 = add nuw i32 %.04.i.i, 1
  %.not.i.i = icmp eq i32 %37, %22
  br i1 %.not.i.i, label %_ZN12_GLOBAL__N_111DeclPrinter6IndentEv.exit, label %.lr.ph.i.i, !llvm.loop !9

_ZN12_GLOBAL__N_111DeclPrinter6IndentEv.exit:     ; preds = %_ZN4llvm11raw_ostreamlsEPKc.exit.i.i, %20, %16
  %38 = getelementptr inbounds i8, ptr %.015, i64 8
  %.not12 = icmp eq ptr %38, %14
  br i1 %.not12, label %.loopexit, label %16

.loopexit:                                        ; preds = %_ZN12_GLOBAL__N_111DeclPrinter6IndentEv.exit, %10, %2, %6
  ret void
}